Certificate:
    Data:
        Version: 1 (0x0)
        Serial Number:
            02:58:43:aa:a6:bf:83:b8:09:66:a9:64:76:43:e3:19:ba:c6:5d:29
        Signature Algorithm: sha256WithRSAEncryption
        Issuer: C = US, ST = CA, L = Santa Clara, O = Real Time Innovations, CN = RTI CA, emailAddress = secure@rti.com
        Validity
            Not Before: Mar 13 03:03:18 2021 GMT
            Not After : Mar 12 03:03:18 2026 GMT
        Subject: C = US, ST = CA, L = Santa Clara, O = Real Time Innovations, CN = RTI CA, emailAddress = secure@rti.com
        Subject Public Key Info:
            Public Key Algorithm: rsaEncryption
                RSA Public-Key: (2048 bit)
                Modulus:
                    00:a4:7e:ea:84:e0:66:49:44:1f:61:92:18:14:85:
                    a4:2d:0b:ee:77:1c:d8:2b:61:da:8e:ae:ac:66:37:
                    45:4d:ea:70:5d:1e:a9:8b:14:fc:51:68:ce:70:33:
                    8f:ff:d0:6a:2b:ba:0e:8a:a5:c4:64:50:e5:40:c3:
                    d1:5e:54:aa:18:6b:46:a8:41:d3:4f:fb:ed:49:f5:
                    5d:e2:3a:64:60:95:90:14:26:77:2c:5f:89:3f:18:
                    bd:44:1b:ae:c8:cf:97:92:e0:f6:4e:3d:8e:78:47:
                    76:bb:f7:d4:1d:85:60:6c:4a:0d:7a:e4:19:26:05:
                    39:ee:da:b3:d4:39:99:73:3f:76:33:69:c6:bf:2a:
                    63:b6:f8:e6:a4:48:c5:fe:08:1b:ff:95:09:95:72:
                    06:9f:c0:17:0f:15:d6:76:46:35:f1:9a:c4:5a:bc:
                    a1:40:18:64:1a:6c:8f:2b:27:06:3f:4b:c1:d5:24:
                    e8:49:5d:48:2d:d9:7b:dd:70:28:6d:2a:1f:b8:39:
                    2c:d9:4b:95:1c:1e:02:45:07:6d:53:c0:98:b4:9f:
                    a6:b8:2f:fc:6f:60:c0:e3:1b:bd:8d:24:24:5f:16:
                    85:0e:9c:d4:e2:ab:5e:0d:81:77:74:3a:b5:a6:6d:
                    2e:bb:ac:0a:20:3c:3c:94:d7:7c:97:35:14:84:be:
                    a5:3f
                Exponent: 65537 (0x10001)
    Signature Algorithm: sha256WithRSAEncryption
         12:bf:25:90:45:ea:bc:17:af:c7:f4:82:3e:02:9d:81:85:ce:
         71:1d:1c:41:4b:bc:4e:61:87:ea:a7:03:3d:ab:24:cc:df:31:
         0d:49:73:80:32:81:d9:98:45:e7:12:3f:14:ce:1c:30:36:17:
         73:dd:9d:91:58:af:54:5f:d4:13:3e:b1:36:32:f2:87:98:41:
         20:20:71:3f:08:a6:cf:6b:bd:e4:dd:dc:50:37:3f:85:6d:47:
         ef:2b:98:06:be:0e:2d:d0:fd:2c:ab:2f:cb:ee:47:c9:f8:72:
         9d:23:30:93:7e:99:65:97:b4:a9:08:d0:8b:3e:80:0f:70:5c:
         c4:57:d4:fe:9c:87:b6:14:7f:0a:ed:f1:c8:47:c9:bd:c3:4f:
         d7:86:a8:7b:a7:36:56:8a:a3:17:eb:66:47:36:9b:55:82:5c:
         5a:c6:58:9d:29:e2:d3:62:12:90:81:60:65:96:7c:03:4f:2f:
         fe:01:dc:a8:83:e4:93:c6:1e:75:6f:d1:3a:2c:95:76:a0:75:
         75:83:24:ff:f6:71:35:a3:fd:4b:e7:5c:f3:c2:f1:b5:1f:5e:
         a1:5a:a3:2e:70:b8:9b:d3:87:03:0c:34:e9:f1:99:4a:97:a4:
         64:bf:00:c1:39:12:75:72:82:b2:75:46:5e:1d:ed:e4:0d:0a:
         b0:3c:6d:c9
-----BEGIN CERTIFICATE-----
MIIDiTCCAnECFAJYQ6qmv4O4CWapZHZD4xm6xl0pMA0GCSqGSIb3DQEBCwUAMIGA
MQswCQYDVQQGEwJVUzELMAkGA1UECAwCQ0ExFDASBgNVBAcMC1NhbnRhIENsYXJh
MR4wHAYDVQQKDBVSZWFsIFRpbWUgSW5ub3ZhdGlvbnMxDzANBgNVBAMMBlJUSSBD
QTEdMBsGCSqGSIb3DQEJARYOc2VjdXJlQHJ0aS5jb20wHhcNMjEwMzEzMDMwMzE4
WhcNMjYwMzEyMDMwMzE4WjCBgDELMAkGA1UEBhMCVVMxCzAJBgNVBAgMAkNBMRQw
EgYDVQQHDAtTYW50YSBDbGFyYTEeMBwGA1UECgwVUmVhbCBUaW1lIElubm92YXRp
b25zMQ8wDQYDVQQDDAZSVEkgQ0ExHTAbBgkqhkiG9w0BCQEWDnNlY3VyZUBydGku
Y29tMIIBIjANBgkqhkiG9w0BAQEFAAOCAQ8AMIIBCgKCAQEApH7qhOBmSUQfYZIY
FIWkLQvudxzYK2Hajq6sZjdFTepwXR6pixT8UWjOcDOP/9BqK7oOiqXEZFDlQMPR
XlSqGGtGqEHTT/vtSfVd4jpkYJWQFCZ3LF+JPxi9RBuuyM+XkuD2Tj2OeEd2u/fU
HYVgbEoNeuQZJgU57tqz1DmZcz92M2nGvypjtvjmpEjF/ggb/5UJlXIGn8AXDxXW
dkY18ZrEWryhQBhkGmyPKycGP0vB1SToSV1ILdl73XAobSofuDks2UuVHB4CRQdt
U8CYtJ+muC/8b2DA4xu9jSQkXxaFDpzU4qteDYF3dDq1pm0uu6wKIDw8lNd8lzUU
hL6lPwIDAQABMA0GCSqGSIb3DQEBCwUAA4IBAQASvyWQReq8F6/H9II+Ap2Bhc5x
HRxBS7xOYYfqpwM9qyTM3zENSXOAMoHZmEXnEj8UzhwwNhdz3Z2RWK9UX9QTPrE2
MvKHmEEgIHE/CKbPa73k3dxQNz+FbUfvK5gGvg4t0P0sqy/L7kfJ+HKdIzCTfpll
l7SpCNCLPoAPcFzEV9T+nIe2FH8K7fHIR8m9w0/Xhqh7pzZWiqMX62ZHNptVglxa
xlidKeLTYhKQgWBllnwDTy/+Adyog+STxh51b9E6LJV2oHV1gyT/9nE1o/1L51zz
wvG1H16hWqMucLib04cDDDTp8ZlKl6RkvwDBORJ1coKydUZeHe3kDQqwPG3J
-----END CERTIFICATE-----
