Certificate:
    Data:
        Version: 1 (0x0)
        Serial Number:
            4e:46:06:0e:5b:c6:53:dc:99:70:2a:ca:f3:d1:9b:1c:f0:e5:28:82
        Signature Algorithm: ecdsa-with-SHA256
        Issuer: C = US, ST = CA, L = Santa Clara, O = Real Time Innovations, CN = RTI CA, emailAddress = secure@rti.com
        Validity
            Not Before: Mar 13 03:03:12 2021 GMT
            Not After : Mar 12 03:03:12 2026 GMT
        Subject: C = US, ST = CA, L = Santa Clara, O = Real Time Innovations, CN = RTI CA, emailAddress = secure@rti.com
        Subject Public Key Info:
            Public Key Algorithm: id-ecPublicKey
                Public-Key: (256 bit)
                pub:
                    04:4c:77:2e:eb:47:85:ed:b5:83:22:46:9c:38:9d:
                    86:04:6f:5a:01:a9:e5:1e:bd:21:9c:ed:97:69:a3:
                    bf:af:19:b6:52:6d:1e:6d:de:f1:23:54:cb:2d:89:
                    84:da:70:bc:9a:e3:6d:d8:ea:3f:a0:aa:72:91:58:
                    54:f8:27:6c:88
                ASN1 OID: prime256v1
                NIST CURVE: P-256
    Signature Algorithm: ecdsa-with-SHA256
         30:44:02:20:6a:70:31:b7:59:db:8a:f6:40:d9:fd:a5:68:7d:
         69:54:e9:69:8a:c4:1c:1f:8b:03:95:bb:00:1e:8b:a1:02:10:
         02:20:79:93:6a:e9:07:dc:87:cc:65:f3:ca:a6:10:62:d3:fb:
         c0:fb:4b:a5:a1:46:63:1b:88:02:0d:49:45:59:2e:6f
-----BEGIN CERTIFICATE-----
MIIB/DCCAaMCFE5GBg5bxlPcmXAqyvPRmxzw5SiCMAoGCCqGSM49BAMCMIGAMQsw
CQYDVQQGEwJVUzELMAkGA1UECAwCQ0ExFDASBgNVBAcMC1NhbnRhIENsYXJhMR4w
HAYDVQQKDBVSZWFsIFRpbWUgSW5ub3ZhdGlvbnMxDzANBgNVBAMMBlJUSSBDQTEd
MBsGCSqGSIb3DQEJARYOc2VjdXJlQHJ0aS5jb20wHhcNMjEwMzEzMDMwMzEyWhcN
MjYwMzEyMDMwMzEyWjCBgDELMAkGA1UEBhMCVVMxCzAJBgNVBAgMAkNBMRQwEgYD
VQQHDAtTYW50YSBDbGFyYTEeMBwGA1UECgwVUmVhbCBUaW1lIElubm92YXRpb25z
MQ8wDQYDVQQDDAZSVEkgQ0ExHTAbBgkqhkiG9w0BCQEWDnNlY3VyZUBydGkuY29t
MFkwEwYHKoZIzj0CAQYIKoZIzj0DAQcDQgAETHcu60eF7bWDIkacOJ2GBG9aAanl
Hr0hnO2XaaO/rxm2Um0ebd7xI1TLLYmE2nC8muNt2Oo/oKpykVhU+CdsiDAKBggq
hkjOPQQDAgNHADBEAiBqcDG3WduK9kDZ/aVofWlU6WmKxBwfiwOVuwAei6ECEAIg
eZNq6Qfch8xl88qmEGLT+8D7S6WhRmMbiAINSUVZLm8=
-----END CERTIFICATE-----
