Certificate:
    Data:
        Version: 1 (0x0)
        Serial Number:
            10:30:0a:8f:5f:04:10:42:b0:e6:92:e1:18:73:61:66:73:8d:64:01
        Signature Algorithm: NULL
        Issuer: C = US, ST = CA, O = Real Time Innovations, emailAddress = meECdsa@rti.com, CN = dtlsexampleECdsa
        Validity
            Not Before: Mar 13 03:03:13 2021 GMT
            Not After : Mar 12 03:03:13 2026 GMT
        Subject: C = US, ST = CA, O = Real Time Innovations, emailAddress = meECdsa@rti.com, CN = dtlsexampleECdsa
        Subject Public Key Info:
            Public Key Algorithm: id-ecPublicKey
                Public-Key: (256 bit)
                pub:
                    04:dc:ec:95:60:db:c8:27:d1:5d:54:d4:ed:f1:56:
                    5f:3a:dc:a6:c4:4c:77:00:f2:99:ae:80:6a:57:e4:
                    d6:42:99:8b:39:64:ba:5b:68:b6:e7:ca:bd:18:5f:
                    6c:2a:b7:bb:5b:42:08:c9:19:dd:fb:85:cb:9a:7d:
                    6d:e2:eb:f7:54
                ASN1 OID: prime256v1
                NIST CURVE: P-256
    Signature Algorithm: NULL
-----BEGIN CERTIFICATE-----
MIIB9jCCAZygAwIBAgIUZ/a6Yf77Kx/Zi+K3MKcUzcy4TfcwCgYIKoZIzj0EAwIw
gYAxCzAJBgNVBAYTAlVTMQswCQYDVQQIDAJDQTEUMBIGA1UEBwwLU2FudGEgQ2xh
cmExHjAcBgNVBAoMFVJlYWwgVGltZSBJbm5vdmF0aW9uczEPMA0GA1UEAwwGUlRJ
IENBMR0wGwYJKoZIhvcNAQkBFg5zZWN1cmVAcnRpLmNvbTAeFw0yMTAzMTMwMzAz
MTNaFw0yNjAzMTIwMzAzMTNaMHUxCzAJBgNVBAYTAlVTMQswCQYDVQQIDAJDQTEe
MBwGA1UECgwVUmVhbCBUaW1lIElubm92YXRpb25zMR4wHAYJKoZIhvcNAQkBFg9t
ZUVDZHNhQHJ0aS5jb20xGTAXBgNVBAMMEGR0bHNleGFtcGxlRUNkc2EwWTATBgcq
hkjOPQIBBggqhkjOPQMBBwNCAATc7JVg28gn0V1U1O3xVl863KbETHcA8pmugGpX
5NZCmYs5ZLpbaLbnyr0YX2wqt7tbQgjJGd37hcuafW3i6/dUMAoGCCqGSM49BAMC
A0gAMEUCIENHCgqcuSLDulg1Ap65908cjafvTtLDnBke53B1NTZ4AiEA16qdsUar
OQwaqgRYH5/bvjMvRIC3G6UXZvdMt9rwm6k=
-----END CERTIFICATE-----
