Certificate:
    Data:
        Version: 1 (0x0)
        Serial Number:
            4f:82:92:27:fd:29:4e:ea:82:54:65:72:6c:0a:f0:f7:0b:fe:8c:c4
        Signature Algorithm: NULL
        Issuer: C = US, ST = CA, O = Real Time Innovations, emailAddress = youECdsa@rti.com, CN = dtlsexample2ECdsa
        Validity
            Not Before: Mar 13 03:03:13 2021 GMT
            Not After : Mar 12 03:03:13 2026 GMT
        Subject: C = US, ST = CA, O = Real Time Innovations, emailAddress = youECdsa@rti.com, CN = dtlsexample2ECdsa
        Subject Public Key Info:
            Public Key Algorithm: id-ecPublicKey
                Public-Key: (256 bit)
                pub:
                    04:7a:6c:53:02:ba:62:28:86:b5:65:3e:b8:b6:f3:
                    c6:a7:f8:ee:24:08:f9:1a:d6:69:00:6b:0a:5c:0c:
                    dd:b9:ca:fe:d1:5d:dc:53:4e:a2:94:f5:a9:28:24:
                    fe:34:68:f7:17:1f:ce:6e:1f:bd:21:a1:6e:5e:63:
                    bd:4c:11:b8:b3
                ASN1 OID: prime256v1
                NIST CURVE: P-256
    Signature Algorithm: NULL
-----BEGIN CERTIFICATE-----
MIIB+TCCAZ6gAwIBAgIUZ/a6Yf77Kx/Zi+K3MKcUzcy4TfgwCgYIKoZIzj0EAwIw
gYAxCzAJBgNVBAYTAlVTMQswCQYDVQQIDAJDQTEUMBIGA1UEBwwLU2FudGEgQ2xh
cmExHjAcBgNVBAoMFVJlYWwgVGltZSBJbm5vdmF0aW9uczEPMA0GA1UEAwwGUlRJ
IENBMR0wGwYJKoZIhvcNAQkBFg5zZWN1cmVAcnRpLmNvbTAeFw0yMTAzMTMwMzAz
MTNaFw0yNjAzMTIwMzAzMTNaMHcxCzAJBgNVBAYTAlVTMQswCQYDVQQIDAJDQTEe
MBwGA1UECgwVUmVhbCBUaW1lIElubm92YXRpb25zMR8wHQYJKoZIhvcNAQkBFhB5
b3VFQ2RzYUBydGkuY29tMRowGAYDVQQDDBFkdGxzZXhhbXBsZTJFQ2RzYTBZMBMG
ByqGSM49AgEGCCqGSM49AwEHA0IABHpsUwK6YiiGtWU+uLbzxqf47iQI+RrWaQBr
ClwM3bnK/tFd3FNOopT1qSgk/jRo9xcfzm4fvSGhbl5jvUwRuLMwCgYIKoZIzj0E
AwIDSQAwRgIhAPc/c+ufLEIHd243hmKUn8bOUemr1Kepb+JkkFVd6MqOAiEAoiFb
sAonvqoyzg20TgDFwwlyVJ3+W1frjVFo0sLTBko=
-----END CERTIFICATE-----
