Certificate:
    Data:
        Version: 1 (0x0)
        Serial Number:
            72:8f:c0:70:0e:25:88:62:9a:3a:13:0f:ad:f0:f3:bc:77:fd:6a:5d
        Signature Algorithm: NULL
        Issuer: C = US, ST = CA, O = Real Time Innovations, emailAddress = me@rti.com, CN = dtlsexample
        Validity
            Not Before: Mar 13 03:03:18 2021 GMT
            Not After : Mar 12 03:03:18 2026 GMT
        Subject: C = US, ST = CA, O = Real Time Innovations, emailAddress = me@rti.com, CN = dtlsexample
        Subject Public Key Info:
            Public Key Algorithm: rsaEncryption
                RSA Public-Key: (2048 bit)
                Modulus:
                    00:c0:8c:8a:44:c1:b9:36:4a:bb:56:6a:a2:36:34:
                    1a:6f:8b:1d:b1:c4:75:48:be:4d:ce:0c:82:d4:3f:
                    f3:17:bf:ea:8e:3b:0f:dc:95:75:5c:e9:69:19:cb:
                    2d:ef:5e:72:fa:f1:ad:52:b2:66:28:5f:31:c7:54:
                    fa:ab:ed:41:a7:c6:61:bc:3e:dd:f4:36:64:8f:ca:
                    12:2c:de:68:73:4f:94:48:8a:21:8b:cf:50:06:e7:
                    15:f2:48:07:09:c0:91:86:18:b3:59:7c:eb:88:1d:
                    6d:08:eb:a7:ae:40:bf:93:61:3c:9c:4d:2d:4b:60:
                    54:4a:9c:7e:4e:00:b3:94:67:12:79:60:56:0d:6a:
                    33:93:f9:97:ff:7a:7f:c0:b8:74:0f:83:dd:27:16:
                    4c:f5:62:ff:a9:f9:7b:18:cd:d8:a4:44:3e:89:ec:
                    d5:1a:27:9d:d9:78:12:3b:a4:f5:98:ff:ba:a2:fd:
                    30:0c:75:df:22:e9:7d:6c:5c:ae:f1:a1:97:0e:e2:
                    f3:67:c7:c5:41:f4:20:7f:be:ec:68:da:63:72:27:
                    ac:f8:b6:60:4e:7c:b0:da:9d:9a:b9:6d:23:b5:12:
                    7a:27:5f:5f:0d:33:29:c9:99:96:f3:e8:95:61:b7:
                    a0:35:1c:36:74:35:d5:37:0c:93:8f:fe:47:7b:29:
                    b9:59
                Exponent: 65537 (0x10001)
    Signature Algorithm: NULL
-----BEGIN CERTIFICATE-----
MIIDeDCCAmCgAwIBAgIUH8vReVqsmluCXHW1b6crfke9/RUwDQYJKoZIhvcNAQEL
BQAwgYAxCzAJBgNVBAYTAlVTMQswCQYDVQQIDAJDQTEUMBIGA1UEBwwLU2FudGEg
Q2xhcmExHjAcBgNVBAoMFVJlYWwgVGltZSBJbm5vdmF0aW9uczEPMA0GA1UEAwwG
UlRJIENBMR0wGwYJKoZIhvcNAQkBFg5zZWN1cmVAcnRpLmNvbTAeFw0yMTAzMTMw
MzAzMThaFw0yNjAzMTIwMzAzMThaMGsxCzAJBgNVBAYTAlVTMQswCQYDVQQIDAJD
QTEeMBwGA1UECgwVUmVhbCBUaW1lIElubm92YXRpb25zMRkwFwYJKoZIhvcNAQkB
FgptZUBydGkuY29tMRQwEgYDVQQDDAtkdGxzZXhhbXBsZTCCASIwDQYJKoZIhvcN
AQEBBQADggEPADCCAQoCggEBAMCMikTBuTZKu1ZqojY0Gm+LHbHEdUi+Tc4MgtQ/
8xe/6o47D9yVdVzpaRnLLe9ecvrxrVKyZihfMcdU+qvtQafGYbw+3fQ2ZI/KEize
aHNPlEiKIYvPUAbnFfJIBwnAkYYYs1l864gdbQjrp65Av5NhPJxNLUtgVEqcfk4A
s5RnEnlgVg1qM5P5l/96f8C4dA+D3ScWTPVi/6n5exjN2KREPons1Ronndl4Ejuk
9Zj/uqL9MAx13yLpfWxcrvGhlw7i82fHxUH0IH++7GjaY3InrPi2YE58sNqdmrlt
I7USeidfXw0zKcmZlvPolWG3oDUcNnQ11TcMk4/+R3spuVkCAwEAATANBgkqhkiG
9w0BAQsFAAOCAQEAjGHmucG/3E8pTngQA9FkXGNamodmQGyhfsFO9FhPp085pmop
isqtS4E6zSJWUwqem2f8mjX9Ax/xrmivnk9VyZubM5k/EPgYIsV9VLLu0Td2Oxro
IWCeBQrM8W7PtgStIbYlrYm1IlBfCGwW/TuEwqFvYCE90liNeiRO+a5U2jbTW90p
yiPGyVF391ZUsZ3M2Wrkv8vW0MA/Y9cqhr6yAZ8kfmUzn8rnvJEYfPs46d8sSoS2
GtOvDKQe2av+ULVpl4Sdosf8UeEsyzJGyecrSivMF+iG2tonp1JfvBzr8CDPKzzD
kk7vCx4EdT/y9b++Gq0wz4QNP23v1h+LUodWAw==
-----END CERTIFICATE-----
