Certificate:
    Data:
        Version: 1 (0x0)
        Serial Number:
            7c:eb:84:c0:56:d6:fb:ae:c5:12:12:e3:c2:83:7a:01:07:ed:88:a0
        Signature Algorithm: NULL
        Issuer: C = US, ST = CA, O = Real Time Innovations, emailAddress = you@rti.com, CN = dtlsexample2
        Validity
            Not Before: Mar 13 03:03:18 2021 GMT
            Not After : Mar 12 03:03:18 2026 GMT
        Subject: C = US, ST = CA, O = Real Time Innovations, emailAddress = you@rti.com, CN = dtlsexample2
        Subject Public Key Info:
            Public Key Algorithm: rsaEncryption
                RSA Public-Key: (2048 bit)
                Modulus:
                    00:d9:9b:eb:32:55:fd:59:fe:53:a3:e3:b5:d6:bd:
                    30:c8:01:09:18:f5:4d:2b:51:0a:44:ff:7c:18:3c:
                    2e:fe:fd:61:e2:ef:3c:71:26:14:21:18:8f:6a:e7:
                    fa:64:e1:81:10:d0:98:31:b8:2b:75:9d:df:a0:3d:
                    6a:fd:58:3a:cf:72:d3:2b:63:b5:09:ae:97:ca:4a:
                    aa:d9:11:44:14:99:40:bf:c6:b8:30:12:38:4f:d1:
                    81:4e:af:25:b5:d0:b8:f2:59:d0:13:8f:46:34:ac:
                    91:42:be:78:ee:e2:79:27:60:b5:42:a9:60:2a:9d:
                    47:dd:4f:9e:44:8f:cf:90:3e:48:30:a6:d1:31:5b:
                    69:7a:3e:e8:d6:fe:ec:3d:81:05:22:02:62:4b:61:
                    1c:eb:dc:be:da:41:c7:86:d4:23:6c:ba:9c:50:87:
                    34:91:dc:30:03:23:85:eb:4f:45:e8:a6:fa:30:90:
                    89:ef:02:4b:e8:58:e6:c0:d3:77:cb:ce:2a:b6:52:
                    29:fd:d7:89:7e:7f:57:ac:e7:4a:11:24:4e:a5:30:
                    31:cd:7e:60:59:02:27:95:f6:2d:ba:ee:b6:66:b0:
                    3b:ca:18:19:f3:08:4c:e9:f1:59:d2:87:bf:9d:95:
                    0a:cd:d1:d8:11:61:33:39:35:e8:64:6e:52:b8:26:
                    81:99
                Exponent: 65537 (0x10001)
    Signature Algorithm: NULL
-----BEGIN CERTIFICATE-----
MIIDejCCAmKgAwIBAgIUH8vReVqsmluCXHW1b6crfke9/RYwDQYJKoZIhvcNAQEL
BQAwgYAxCzAJBgNVBAYTAlVTMQswCQYDVQQIDAJDQTEUMBIGA1UEBwwLU2FudGEg
Q2xhcmExHjAcBgNVBAoMFVJlYWwgVGltZSBJbm5vdmF0aW9uczEPMA0GA1UEAwwG
UlRJIENBMR0wGwYJKoZIhvcNAQkBFg5zZWN1cmVAcnRpLmNvbTAeFw0yMTAzMTMw
MzAzMThaFw0yNjAzMTIwMzAzMThaMG0xCzAJBgNVBAYTAlVTMQswCQYDVQQIDAJD
QTEeMBwGA1UECgwVUmVhbCBUaW1lIElubm92YXRpb25zMRowGAYJKoZIhvcNAQkB
Fgt5b3VAcnRpLmNvbTEVMBMGA1UEAwwMZHRsc2V4YW1wbGUyMIIBIjANBgkqhkiG
9w0BAQEFAAOCAQ8AMIIBCgKCAQEA2ZvrMlX9Wf5To+O11r0wyAEJGPVNK1EKRP98
GDwu/v1h4u88cSYUIRiPauf6ZOGBENCYMbgrdZ3foD1q/Vg6z3LTK2O1Ca6Xykqq
2RFEFJlAv8a4MBI4T9GBTq8ltdC48lnQE49GNKyRQr547uJ5J2C1QqlgKp1H3U+e
RI/PkD5IMKbRMVtpej7o1v7sPYEFIgJiS2Ec69y+2kHHhtQjbLqcUIc0kdwwAyOF
609F6Kb6MJCJ7wJL6FjmwNN3y84qtlIp/deJfn9XrOdKESROpTAxzX5gWQInlfYt
uu62ZrA7yhgZ8whM6fFZ0oe/nZUKzdHYEWEzOTXoZG5SuCaBmQIDAQABMA0GCSqG
SIb3DQEBCwUAA4IBAQBCwk3dFmRHDEhUj1oVmzWTEQMuTCRSZrMYQOZuo8oKDOVw
25jQrjmMzCFaPju24vfVjAXCKheQNeey63RtoCRv8qaKotfztPdHYEbQnFkuZO22
nOcI5gVB3gqas87TEWt2NdvBGLOLWx2XbL3vF0hyt5WYzs8rT1/Prhl+/VvDdPgx
y2zLegpnDUNeZXsd+Lh54sUr0Y/OBLWW2uUftw+meZxqdClt30EZWoGUKv+YXXCA
l5+cX6m0XgUQxHNSaA5fqyMC+aeF32x6K66Wb9yAj8udawV26V+Rz9741oRdjF44
wiukKBAPBTDVMHdYM60UDcjlzh7or6t7AWEYHFjM
-----END CERTIFICATE-----
